target datalayout = "e-m:e-p270:32:32-p271:32:32-p272:64:64-i64:64-i128:128-f80:128-n8:16:32:64-S128"
target triple = "x86_64-pc-linux-gnu"

%struct.sharkd_expert_tap = type { ptr, ptr }

; Function Attrs: null_pointer_is_valid sspstrong uwtable
define internal void @sharkd_session_free_tap_expert_cb(ptr noundef %0) #0 {
  %2 = alloca ptr, align 8
  %3 = alloca ptr, align 8
  store ptr %0, ptr %2, align 8
  call void @llvm.lifetime.start.p0(i64 8, ptr %3) #21
  %4 = load ptr, ptr %2, align 8
  store ptr %4, ptr %3, align 8
  %5 = load ptr, ptr %3, align 8
  %6 = getelementptr inbounds nuw %struct.sharkd_expert_tap, ptr %5, i32 0, i32 0
  %7 = load ptr, ptr %6, align 8
  call void @g_slist_free_full(ptr noundef %7, ptr noundef @g_free)
  %8 = load ptr, ptr %3, align 8
  %9 = getelementptr inbounds nuw %struct.sharkd_expert_tap, ptr %8, i32 0, i32 1
  %10 = load ptr, ptr %9, align 8
  call void @g_string_chunk_free(ptr noundef %10)
  %11 = load ptr, ptr %3, align 8
  call void @g_free(ptr noundef %11)
  call void @llvm.lifetime.end.p0(i64 8, ptr %3) #21
  ret void
}