; Function Attrs: null_pointer_is_valid sspstrong uwtable
define internal void @sharkd_session_free_tap_expert_cb(ptr noundef %0) #0 {
  %2 = load ptr, ptr %0, align 8
  tail call void @g_slist_free_full(ptr noundef %2, ptr noundef nonnull @g_free)
  %3 = getelementptr inbounds nuw i8, ptr %0, i64 8
  %4 = load ptr, ptr %3, align 8
  tail call void @g_string_chunk_free(ptr noundef %4)
  tail call void @g_free(ptr noundef %0)
  ret void
}